(lp0
(dp1
S'center'
p2
(F692.5645486672355
F356.3316411173451
tp3
sS'density'
p4
I1
sS'radius'
p5
F59.12787620944195
sS'vely'
p6
F0.23103556651325985
sS'velx'
p7
F0.2534860128442719
sS'traces'
p8
(lp9
(F691.1029496310873
F355.8731262519901
tp10
a(F691.1118902959471
F355.87145055463276
tp11
a(F691.120878681998
F355.86973134593154
tp12
a(F691.1299170542143
F355.86796880620165
tp13
a(F691.1390077620091
F355.8661631601092
tp14
a(F691.1481532433332
F355.86431468176806
tp15
a(F691.1573560288995
F355.8624237003481
tp16
a(F691.1666187465235
F355.86049060624606
tp17
a(F691.1759441255687
F355.8585158578782
tp18
a(F691.1853350014782
F355.85649998915653
tp19
a(F691.1947943203721
F355.8544436177192
tp20
a(F691.2043251436802
F355.85234745399134
tp21
a(F691.213930652774
F355.85021231115957
tp22
a(F691.2236141535524
F355.8480391161511
tp23
a(F691.233379080922
F355.84582892171704
tp24
a(F691.2432290031029
F355.8435829197265
tp25
a(F691.2531676256712
F355.8413024557868
tp26
a(F691.2631987952329
F355.83898904531424
tp27
a(F691.273326502601
F355.83664439118564
tp28
a(F691.2835548853182
F355.8342704031092
tp29
a(F691.2938882293412
F355.83186921885846
tp30
a(F691.3043309696615
F355.8294432275151
tp31
a(F691.3148876895966
F355.82699509486883
tp32
a(F691.3255631184379
F355.8245277911147
tp33
a(F691.3363621270813
F355.8220446209817
tp34
a(F691.3472897212059
F355.8195492564053
tp35
a(F691.358351031489
F355.81704577182757
tp36
a(F691.3695513002682
F355.8145386821682
tp37
a(F691.3808958639689
F355.8120329834468
tp38
a(F691.3923901305194
F355.809534195956
tp39
a(F691.4040395508756
F355.8070484097758
tp40
a(F691.4158495836735
F355.80458233227614
tp41
a(F691.4278256519283
F355.8021433370743
tp42
a(F691.439973090612
F355.799739513683
tp43
a(F691.4522970838806
F355.797379716805
tp44
a(F691.4648025906882
F355.795073613889
tp45
a(F691.477494257567
F355.79283172915893
tp46
a(F691.4903763174538
F355.79066548186574
tp47
a(F691.5034524736761
F355.78858721599175
tp48
a(F691.5167257685739
F355.7866102180825
tp49
a(F691.5301984367833
F355.78474871931564
tp50
a(F691.5438717439771
F355.78301787738803
tp51
a(F691.5577458128635
F355.7814337333747
tp52
a(F691.5718194395184
F355.7800131384744
tp53
a(F691.5860899046443
F355.7787736456121
tp54
a(F691.6005527860666
F355.7777333613409
tp55
a(F691.6152017805987
F355.77691075449934
tp56
a(F691.6300285451595
F355.77632441974555
tp57
a(F691.645022568502
F355.7759927964636
tp58
a(F691.6601710858142
F355.7759338466105
tp59
a(F691.6754590484918
F355.7761646987099
tp60
a(F691.6908691602632
F355.77670126913677
tp61
a(F691.7063819883765
F355.7775578756671
tp62
a(F691.7219761546911
F355.7787468614714
tp63
a(F691.7376286064282
F355.7802782497438
tp64
a(F691.7533149604448
F355.7821594494852
tp65
a(F691.7690099088463
F355.78439503126503
tp66
a(F691.7846876683133
F355.7869865880322
tp67
a(F691.8003224514647
F355.7899326905228
tp68
a(F691.8158889365228
F355.793228940122
tp69
a(F691.8313627117985
F355.7968681150124
tp70
a(F691.8467206740376
F355.80084039896434
tp71
a(F691.8619413640503
F355.8051336769791
tp72
a(F691.8770052286264
F355.80973387870506
tp73
a(F691.8918948037383
F355.8146253493166
tp74
a(F691.90659481971
F355.8197912282465
tp75
a(F691.9210922338078
F355.8252138184242
tp76
a(F691.9353761992231
F355.830874931971
tp77
a(F691.9494379815702
F355.83675620209794
tp78
a(F691.9632708348843
F355.8428393547505
tp79
a(F691.9768698489003
F355.8491064369894
tp80
a(F691.9902317784091
F355.85554000195566
tp81
a(F692.0033548640137
F355.86212325244423
tp82
a(F692.016238651899
F355.8688401466116
tp83
a(F692.0288838185018
F355.87567547023264
tp84
a(F692.0412920043417
F355.88261488031634
tp85
a(F692.053465659862
F355.88964492490595
tp86
a(F692.0654079049431
F355.896753043638
tp87
a(F692.0771224028224
F355.9039275532214
tp88
a(F692.0886132484432
F355.911157621494
tp89
a(F692.0998848707517
F355.91843323318307
tp90
a(F692.1109419481222
F355.92574514997614
tp91
a(F692.1217893358812
F355.9330848670254
tp92
a(F692.1324320047986
F355.94044456757746
tp93
a(F692.1428749893837
F355.94781707704567
tp94
a(F692.1531233448441
F355.95519581752444
tp95
a(F692.1631821116242
F355.96257476348336
tp96
a(F692.1730562865197
F355.9699483991633
tp97
a(F692.1827507994497
F355.97731167802715
tp98
a(F692.1922704950672
F355.9846599844827
tp99
a(F692.2016201184783
F355.9919890979908
tp100
a(F692.210804304428
F355.99929515959553
tp101
a(F692.2198275693968
F356.0065746408517
tp102
a(F692.2286943061223
F356.01382431508654
tp103
a(F692.2374087801335
F356.02104123090146
tp104
a(F692.245975127939
F356.0282226878005
tp105
a(F692.2543973565691
F356.0353662138226
tp106
a(F692.2626793442134
F356.0424695450476
tp107
a(F692.2708248417383
F356.04953060684494
tp108
a(F692.2788374749017
F356.05654749673687
tp109
a(F692.286720747113
F356.06351846875043
tp110
a(F692.29447804261
F356.07044191913945
tp111
a(F692.302112629948
F356.0773163733632
tp112
a(F692.3096276657138
F356.0841404742159
tp113
a(F692.3170261983904
F356.0909129710082
tp114
a(F692.3243111723169
F356.09763270970865
tp115
a(F692.3314854316933
F356.1042986239616
tp116
a(F692.3385517245914
F356.1109097269024
tp117
a(F692.3455127069427
F356.1174651036992
tp118
a(F692.3523709464766
F356.1239639047565
tp119
a(F692.3591289265916
F356.1304053395195
tp120
a(F692.365789050143
F356.13678867082587
tp121
a(F692.372353643139
F356.1431132097556
tp122
a(F692.3788249583336
F356.1493783109329
tp123
a(F692.3852051787139
F356.1555833682398
tp124
a(F692.3914964208781
F356.1617278109043
tp125
a(F692.3977007383004
F356.16781109992974
tp126
a(F692.4038201244856
F356.17383272483306
tp127
a(F692.4098565160123
F356.17979220066655
tp128
a(F692.4158117954663
F356.1856890652962
tp129
a(F692.4216877942683
F356.1915228769142
tp130
a(F692.4274862953969
F356.1972932117654
tp131
a(F692.4332090360108
F356.2029996620681
tp132
a(F692.4388577099752
F356.2086418341131
tp133
a(F692.4444339702939
F356.2142193465244
tp134
a(F692.4499394314529
F356.2197318286687
tp135
a(F692.455375671679
F356.2251789192008
tp136
a(F692.4607442351173
F356.230560264732
tp137
a(F692.4660466339321
F356.2358755186133
tp138
a(F692.4712843503352
F356.2411243398222
tp139
a(F692.4764588385452
F356.2463063919453
tp140
a(F692.4815715266834
F356.2514213422488
tp141
a(F692.4866238186078
F356.2564688608295
tp142
a(F692.4916170956911
F356.2614486198406
tp143
a(F692.4965527185462
F356.2663602927861
tp144
a(F692.5014320287016
F356.27120355387837
tp145
a(F692.5062563502316
F356.27597807745485
tp146
a(F692.511026991345
F356.2806835374491
tp147
a(F692.5157452459345
F356.2853196069123
tp148
a(F692.5204123950908
F356.2898859575828
tp149
a(F692.5250297085862
F356.29438225949883
tp150
a(F692.5295984463271
F356.2988081806538
tp151
a(F692.5341198597835
F356.30316338669
tp152
a(F692.5385951933938
F356.30744754062965
tp153
a(F692.5430256859521
F356.3116603026411
tp154
a(F692.5474125719779
F356.31580132983856
tp155
a(F692.5517570830727
F356.31987027611433
tp156
a(F692.5560604492662
F356.3238667920019
tp157
a(F692.5603239003548
F356.3277905245699
tp158
a(F692.5645486672355
F356.3316411173451
tp159
asa(dp160
g2
(F689.4768780189911
F213.2546077581
tp161
sg4
I1
sg5
F6.143705073835453
sg6
F-3.5048063322671847
sg7
F147.99531933447923
sg8
(lp162
(F767.6533963925831
F254.12582502580713
tp163
a(F769.3288131306792
F256.51517070402525
tp164
a(F770.9518833810407
F258.9710159810064
tp165
a(F772.5203676631377
F261.4931233789541
tp166
a(F774.0319517297124
F264.0812143263322
tp167
a(F775.4842429204728
F266.73496461575985
tp168
a(F776.8747664040275
F269.45399940641545
tp169
a(F778.2009613159179
F272.2378877242987
tp170
a(F779.4601768038616
F275.08613640897215
tp171
a(F780.6496679952986
F277.9981834502674
tp172
a(F781.7665919071475
F280.97339065288503
tp173
a(F782.8080033235033
F284.0110355608451
tp174
a(F783.7708506740223
F287.1103025673649
tp175
a(F784.6519719541643
F290.2702731289922
tp176
a(F785.4480907385479
F293.4899149957543
tp177
a(F786.1558123507219
F296.76807036180037
tp178
a(F786.7716202669961
F300.10344283364344
tp179
a(F787.291872848994
F303.4945831058598
tp180
a(F787.7128005197369
F306.93987322724445
tp181
a(F788.0305035218173
F310.43750933433716
tp182
a(F788.2409504241202
F313.9854827244276
tp183
a(F788.3399775761887
F317.5815591372869
tp184
a(F788.3232897473149
F321.22325611483495
tp185
a(F788.1864622314006
F324.9078183118533
tp186
a(F787.9249447491744
F328.632190640134
tp187
a(F787.5340675369883
F332.3929891449163
tp188
a(F787.0090500765165
F336.1864695383579
tp189
a(F786.3450129923249
F340.0084933528851
tp190
a(F785.5369937241479
F343.8544917309201
tp191
a(F784.5799666668178
F347.7194269406943
tp192
a(F783.4688685612816
F351.5977518052937
tp193
a(F782.1986300118712
F355.48336735904707
tp194
a(F780.764214093136
F359.369579207698
tp195
a(F779.1606630870798
F363.2490532725807
tp196
a(F777.3831544487064
F367.11377185015175
tp197
a(F775.427067121126
F370.95499122169196
tp198
a(F773.2880592938018
F374.7632024067321
tp199
a(F770.9621585971304
F378.5280970671583
tp200
a(F768.4458655272573
F382.23854103074257
tp201
a(F765.7362705667346
F385.88255839848716
tp202
a(F762.8311849769972
F389.44732970380227
tp203
a(F759.7292845560926
F392.9192080627046
tp204
a(F756.4302647538923
F396.2837576350066
tp205
a(F752.9350044044301
F399.5258189297857
tp206
a(F749.2457339809264
F402.62960543890887
tp207
a(F745.3662027472187
F405.57883566129345
tp208
a(F741.3018375588074
F408.3569036765656
tp209
a(F737.059884500938
F410.94708994370546
tp210
a(F732.6495232403038
F413.33281188230313
tp211
a(F728.0819431593809
F415.4979110557878
tp212
a(F723.370370310125
F417.4269705327299
tp213
a(F718.5300352203145
F419.1056524918776
tp214
a(F713.5780737887815
F420.5210427222593
tp215
a(F708.53335695304
F421.6619858138873
tp216
a(F703.4162493485392
F422.5193930381555
tp217
a(F698.2483024286684
F423.0865046280034
tp218
a(F693.0518929083005
F423.35908967648214
tp219
a(F687.8498222411837
F423.33557021854983
tp220
a(F682.6648964552295
F423.0170609857042
tp221
a(F677.5195075042233
F422.40732228525997
tp222
a(F672.4352370665222
F421.5126297196108
tp223
a(F667.4325014745616
F420.34157023352606
tp224
a(F662.5302525526099
F418.9047785649809
tp225
a(F657.7457441656054
F417.21463110707657
tp226
a(F653.0943689337299
F415.28491528684225
tp227
a(F648.5895645065234
F413.1304919409873
tp228
a(F644.2427845344896
F410.76696615377494
tp229
a(F640.063526339172
F408.21037908033856
tp230
a(F636.0594053670409
F405.476929897981
tp231
a(F632.2362657432005
F402.5827336400719
tp232
a(F628.5983164225479
F399.5436175976324
tp233
a(F625.1482833144489
F396.37495642470043
tp234
a(F621.8875690717097
F393.09154414253726
tp235
a(F618.8164137550548
F389.7074999015396
tp236
a(F615.9340511292698
F386.23620356443666
tp237
a(F613.2388567901016
F382.69025682336394
tp238
a(F610.7284855858372
F379.0814655498264
tp239
a(F608.399996849123
F375.420839298643
tp240
a(F606.2499667879292
F371.7186042569658
tp241
a(F604.2745880140669
F367.9842263773799
tp242
a(F602.4697566387192
F364.2264419078329
tp243
a(F600.8311476669949
F360.4532929946917
tp244
a(F599.3542796076947
F356.67216646575696
tp245
a(F598.0345693080374
F352.8898342849481
tp246
a(F596.8673780500156
F349.1124945043249
tp247
a(F595.8480499251738
F345.34581182186844
tp248
a(F594.9719434536482
F341.5949570878771
tp249
a(F594.2344573433935
F337.86464529358693
tp250
a(F593.6310512055821
F334.1591717281342
tp251
a(F593.1572619586648
F330.48244610982795
tp252
a(F592.8087165709222
F326.8380245902212
tp253
a(F592.5811417124361
F323.22913959951444
tp254
a(F592.4703708139931
F319.6587275536667
tp255
a(F592.4723489634541
F316.1294544808895
tp256
a(F592.5831360099038
F312.64373965104085
tp257
a(F592.7989081924056
F309.20377730837026
tp258
a(F593.115958563126
F305.8115566181657
tp259
a(F593.5306964335114
F302.468879942801
tp260
a(F594.0396460365794
F299.17737956380665
tp261
a(F594.639444567664
F295.9385329649419
tp262
a(F595.3268397395899
F292.75367678765303
tp263
a(F596.0986869657152
F289.6240195653939
tp264
a(F596.9519462650876
F286.5506533375425
tp265
a(F597.8836789676692
F283.5345642374388
tp266
a(F598.8910442837913
F280.5766421426591
tp267
a(F599.971295790365
F277.67768946923286
tp268
a(F601.1217778765699
F274.83842918523504
tp269
a(F602.3399221835149
F272.05951211314874
tp270
a(F603.623244065471
F269.3415235846502
tp271
a(F604.9693390945154
F266.6849895060619
tp272
a(F606.3758796256249
F264.0903818876661
tp273
a(F607.840611435269
F261.5581238853769
tp274
a(F609.3613504432471
F259.0885943989317
tp275
a(F610.935979524786
F256.68213226677034
tp276
a(F612.5624454176717
F254.33904009410577
tp277
a(F614.2387557273508
F252.0595877473406
tp278
a(F615.9629760314419
F249.84401554492194
tp279
a(F617.7332270838847
F247.69253717194113
tp280
a(F619.5476821179827
F245.60534234324632
tp281
a(F621.4045642468192
F243.58259923753147
tp282
a(F623.3021439589141
F241.62445672277047
tp283
a(F625.238736706519
F239.73104639146666
tp284
a(F627.212700583579
F237.90248442246377
tp285
a(F629.2224340901282
F236.13887328450306
tp286
a(F631.266373979688
F234.4403032952946
tp287
a(F633.3429931861064
F232.80685404858733
tp288
a(F635.4507988261978
F231.2385957205584
tp289
a(F637.5883302744998
F229.7355902657869
tp290
a(F639.754157306455
F228.2978925121195
tp291
a(F641.9468783063448
F226.9255511628668
tp292
a(F644.1651185363348
F225.6186097139795
tp293
a(F646.4075284630447
F224.37710729313588
tp294
a(F648.6727821381173
F223.2010794270201
tp295
a(F650.9595756293288
F222.09055874247568
tp296
a(F653.2666254988584
F221.0455756066766
tp297
a(F655.5926673254108
F220.06615871096335
tp298
a(F657.9364542669631
F219.15233560253822
tp299
a(F660.2967556609835
F218.30413316779914
tp300
a(F662.6723556590455
F217.52157807070958
tp301
a(F665.0620518928298
F216.80469714925084
tp302
a(F667.464654168578
F216.1535177726786
tp303
a(F669.878983187121
F215.56806816200478
tp304
a(F672.3038692866661
F215.04837767584513
tp305
a(F674.7381512055791
F214.59447706351298
tp306
a(F677.1806748624427
F214.20639868699212
tp307
a(F679.6302921507148
F213.88417671319144
tp308
a(F682.0858597453439
F213.62784727766305
tp309
a(F684.5462379187272
F213.4374486207555
tp310
a(F687.0102893634164
F213.31302119697114
tp311
a(F689.4768780189911
F213.2546077581
tp312
asa(dp313
g2
(F431.2171117134086
F360.6297809354908
tp314
sg4
I1
sg5
F7.206744191668048
sg6
F-135.52272419108496
sg7
F5.0075790677743495
sg8
(lp315
(F602.2081892962201
F613.612911706114
tp316
a(F600.1773192133128
F612.8897605116645
tp317
a(F598.1525247306364
F612.1494401940655
tp318
a(F596.1339424095037
F611.3919982972344
tp319
a(F594.1217084987412
F610.6174833304963
tp320
a(F592.1159589300286
F609.8259447676238
tp321
a(F590.1168293132274
F609.0174330458932
tp322
a(F588.1244549317008
F608.1919995651552
tp323
a(F586.1389707376229
F607.3496966869205
tp324
a(F584.1605113472782
F606.4905777334587
tp325
a(F582.1892110363516
F605.6146969869112
tp326
a(F580.2252037352088
F604.7221096884152
tp327
a(F578.2686230241677
F603.8128720372406
tp328
a(F576.3196021287614
F602.8870411899359
tp329
a(F574.3782739149929
F601.9446752594846
tp330
a(F572.4447708845834
F600.9858333144696
tp331
a(F570.5192251702144
F600.0105753782439
tp332
a(F568.6017685307652
F599.0189624281077
tp333
a(F566.692532346547
F598.0110563944885
tp334
a(F564.7916476145358
F596.9869201601234
tp335
a(F562.8992449436059
F595.9466175592415
tp336
a(F561.0154545497662
F594.8902133767433
tp337
a(F559.1404062514018
F593.817773347375
tp338
a(F557.2742294645246
F592.7293641548948
tp339
a(F555.4170531980354
F591.6250534312276
tp340
a(F553.5690060490018
F590.5049097556035
tp341
a(F551.730216197956
F589.3690026536773
tp342
a(F549.9008114042169
F588.2174025966218
tp343
a(F548.0809190012421
F587.0501810001916
tp344
a(F546.2706658920142
F585.8674102237487
tp345
a(F544.4701785444685
F584.6691635692438
tp346
a(F542.6795829869673
F583.4555152801444
tp347
a(F540.8990048038282
F582.226540540301
tp348
a(F539.1285691309118
F580.9823154727396
tp349
a(F537.3684006512759
F579.7229171383689
tp350
a(F535.6186235909025
F578.4484235345892
tp351
a(F533.8793617145025
F577.1589135937886
tp352
a(F532.1507383214025
F575.8544671817077
tp353
a(F530.4328762415166
F574.5351650956582
tp354
a(F528.7258978314017
F573.201089062573
tp355
a(F527.0299249703938
F571.8523217368704
tp356
a(F525.3450790568177
F570.488946698108
tp357
a(F523.6714810042523
F569.1110484484071
tp358
a(F522.0092512378341
F567.7187124096268
tp359
a(F520.3585096905632
F566.3120249202667
tp360
a(F518.7193757995724
F564.8910732320854
tp361
a(F517.0919685023008
F563.4559455064227
tp362
a(F515.4764062325038
F562.0067308102238
tp363
a(F513.872806916011
F560.5435191117731
tp364
a(F512.2812879661303
F559.0664012761613
tp365
a(F510.7019662785788
F557.575469060523
tp366
a(F509.13495822580774
F556.0708151091079
tp367
a(F507.58037965058037
F554.5525329482691
tp368
a(F506.038345858658
F553.0207169814804
tp369
a(F504.50897161045555
F551.4754624845226
tp370
a(F502.9923711115468
F549.9168656010039
tp371
a(F501.4886580019289
F548.345023338404
tp372
a(F499.99794534400405
F546.7600335648467
tp373
a(F498.52034560929275
F545.161995006812
tp374
a(F497.0559706639678
F543.5510072479896
tp375
a(F495.6049317533754
F541.9271707294503
tp376
a(F494.1673394857913
F540.2905867512706
tp377
a(F492.743303815735
F538.64135747568
tp378
a(F491.3329340272243
F536.979585931728
tp379
a(F489.9363387173904
F535.3053760213747
tp380
a(F488.5536257808802
F533.6188325268237
tp381
a(F487.1849023954506
F531.9200611188235
tp382
a(F485.83027500909856
F530.2091683655977
tp383
a(F484.48984932898895
F528.4862617420116
tp384
a(F483.1637303123326
F526.7514496385618
tp385
a(F481.8520221592542
F525.0048413697878
tp386
a(F480.55482830757404
F523.246547181741
tp387
a(F479.2722514293247
F521.4766782582104
tp388
a(F478.00439342874404
F519.6953467254871
tp389
a(F476.75135544142967
F517.9026656555366
tp390
a(F475.5132378343121
F516.0987490675403
tp391
a(F474.2901402061037
F514.2837119278455
tp392
a(F473.0821613879005
F512.457670148433
tp393
a(F471.8893994436533
F510.6207405840623
tp394
a(F470.7119516702709
F508.77304102828583
tp395
a(F469.54991459717354
F506.9146902085402
tp396
a(F468.40338398516616
F505.045807780524
tp397
a(F467.27245482455066
F503.1665143220602
tp398
a(F466.1572213324393
F501.2769313266236
tp399
a(F465.05777694926616
F499.3771811966885
tp400
a(F463.9742143345212
F497.4673872370271
tp401
a(F462.90662536175034
F495.5476736480608
tp402
a(F461.8551011128793
F493.6181655193447
tp403
a(F460.8197318719251
F491.6789888232385
tp404
a(F459.8006071181631
F489.7302704088026
tp405
a(F458.7978155188159
F487.77213799593756
tp406
a(F457.8114449213289
F485.8047201697747
tp407
a(F456.8415823452915
F483.82814637531425
tp408
a(F455.8883139740584
F481.8425469122991
tp409
a(F454.9517251461197
F479.8480529303091
tp410
a(F454.0319003462615
F477.8447964240541
tp411
a(F453.1289231965543
F475.8329102288445
tp412
a(F452.2428764472004
F473.81252801621525
tp413
a(F451.3738419672671
F471.78378428967983
tp414
a(F450.52190073532716
F469.7468143805916
tp415
a(F449.6871328300258
F467.70175444408983
tp416
a(F448.8696174205882
F465.6487414551094
tp417
a(F448.0694327572805
F463.5879132044357
tp418
a(F447.2866561618332
F461.5194082947853
tp419
a(F446.5213640178356
F459.4433661368969
tp420
a(F445.7736317611058
F457.35992694561696
tp421
a(F445.0435338700423
F455.26923173596697
tp422
a(F444.3311438559598
F453.171422319179
tp423
a(F443.63653425341136
F451.0666412986897
tp424
a(F442.95977661049983
F448.9550320660821
tp425
a(F442.3009414791785
F446.8367387969659
tp426
a(F441.66009840554256
F444.7119064467896
tp427
a(F441.0373159201111
F442.5806807465756
tp428
a(F440.4326615281004
F440.44320819857325
tp429
a(F439.84620169968827
F438.2996360718234
tp430
a(F439.27800186026843
F436.15011239762913
tp431
a(F438.72812638069655
F433.99478596492844
tp432
a(F438.1966385675257
F431.8338063155643
tp433
a(F437.68360065323236
F429.6673237394485
tp434
a(F437.1890737864318
F427.4954892696153
tp435
a(F436.7131180220832
F425.31845467716244
tp436
a(F436.2557923116846
F423.1363724660756
tp437
a(F435.8171544934563
F420.94939586793447
tp438
a(F435.39726128251436
F418.75767883649723
tp439
a(F434.99616826103306
F416.56137604216144
tp440
a(F434.6139298683972
F414.360642866299
tp441
a(F434.2505993913437
F412.155635395463
tp442
a(F433.90622895409416
F409.9465104154646
tp443
a(F433.5808695084767
F407.733425405318
tp444
a(F433.2745708240401
F405.51653853105114
tp445
a(F432.9873814781585
F403.29600863938185
tp446
a(F432.71934884612915
F401.07199525125554
tp447
a(F432.47051909126264
F398.84465855524496
tp448
a(F432.24093715496736
F396.6141594008088
tp449
a(F432.0306467468285
F394.38065929140845
tp450
a(F431.8396903346831
F392.14432037748116
tp451
a(F431.6681091346919
F389.90530544926787
tp452
a(F431.5159431014091
F387.6637779294945
tp453
a(F431.3832309178515
F385.41990186590493
tp454
a(F431.27000998556827
F383.17384192364483
tp455
a(F431.1763164147127
F380.92576337749404
tp456
a(F431.1021850141171
F378.6758321039467
tp457
a(F431.0476492813729
F376.42421457313753
tp458
a(F431.01274139291735
F374.17107784061324
tp459
a(F430.99749219412774
F371.91658953894677
tp460
a(F431.0019311894262
F369.660917869194
tp461
a(F431.02608653239594
F367.4042315921913
tp462
a(F431.0699850159105
F365.1467000196922
tp463
a(F431.13365206227905
F362.88849300534224
tp464
a(F431.2171117134086
F360.6297809354908
tp465
asa.